target datalayout = "e-m:e-p270:32:32-p271:32:32-p272:64:64-i64:64-i128:128-f80:128-n8:16:32:64-S128"
target triple = "x86_64-pc-linux-gnu"

%struct.auth_credential_t = type { i32, i32, ptr, i8, %struct.in_addr, i8, i32, i32, ptr, i32 }
%struct.in_addr = type { i32 }

@.str.13 = private unnamed_addr constant [32 x i8] c"%s: Unknown protocol version %d\00", align 1
@__func__.auth_p_pack = private unnamed_addr constant [12 x i8] c"auth_p_pack\00", align 1

; Function Attrs: nounwind uwtable
define dso_local i32 @auth_p_pack(ptr noundef %0, ptr noundef %1, i16 noundef zeroext %2) #0 {
  %4 = alloca i32, align 4
  %5 = alloca ptr, align 8
  %6 = alloca ptr, align 8
  %7 = alloca i16, align 2
  %8 = alloca i32, align 4
  store ptr %0, ptr %5, align 8
  store ptr %1, ptr %6, align 8
  store i16 %2, ptr %7, align 2
  %9 = load ptr, ptr %5, align 8
  %10 = icmp ne ptr %9, null
  br i1 %10, label %11, label %14

11:                                               ; preds = %3
  %12 = load ptr, ptr %6, align 8
  %13 = icmp ne ptr %12, null
  br i1 %13, label %16, label %14

14:                                               ; preds = %11, %3
  %15 = call ptr @__errno_location() #11
  store i32 6004, ptr %15, align 4
  store i32 -1, ptr %4, align 4
  br label %45

16:                                               ; preds = %11
  %17 = load i16, ptr %7, align 2
  %18 = zext i16 %17 to i32
  %19 = icmp sge i32 %18, 10240
  br i1 %19, label %20, label %40

20:                                               ; preds = %16
  br label %21

21:                                               ; preds = %20
  call void @llvm.lifetime.start.p0(i64 4, ptr %8) #9
  store i32 0, ptr %8, align 4
  %22 = load ptr, ptr %5, align 8
  %23 = getelementptr inbounds nuw %struct.auth_credential_t, ptr %22, i32 0, i32 2
  %24 = load ptr, ptr %23, align 8
  %25 = icmp ne ptr %24, null
  br i1 %25, label %26, label %33

26:                                               ; preds = %21
  %27 = load ptr, ptr %5, align 8
  %28 = getelementptr inbounds nuw %struct.auth_credential_t, ptr %27, i32 0, i32 2
  %29 = load ptr, ptr %28, align 8
  %30 = call i64 @strlen(ptr noundef %29) #10
  %31 = trunc i64 %30 to i32
  %32 = add i32 %31, 1
  store i32 %32, ptr %8, align 4
  br label %33

33:                                               ; preds = %26, %21
  %34 = load ptr, ptr %5, align 8
  %35 = getelementptr inbounds nuw %struct.auth_credential_t, ptr %34, i32 0, i32 2
  %36 = load ptr, ptr %35, align 8
  %37 = load i32, ptr %8, align 4
  %38 = load ptr, ptr %6, align 8
  call void @slurm_packmem(ptr noundef %36, i32 noundef %37, ptr noundef %38)
  call void @llvm.lifetime.end.p0(i64 4, ptr %8) #9
  br label %39

39:                                               ; preds = %33
  br label %44

40:                                               ; preds = %16
  %41 = load i16, ptr %7, align 2
  %42 = zext i16 %41 to i32
  %43 = call i32 (ptr, ...) @slurm_error(ptr noundef @.str.13, ptr noundef @__func__.auth_p_pack, i32 noundef %42)
  store i32 -1, ptr %4, align 4
  br label %45

44:                                               ; preds = %39
  store i32 0, ptr %4, align 4
  br label %45

45:                                               ; preds = %44, %40, %14
  %46 = load i32, ptr %4, align 4
  ret i32 %46
}