; Function Attrs: nounwind uwtable
define dso_local range(i32 -1, 1) i32 @auth_p_pack(ptr noundef readonly captures(address_is_null) %0, ptr noundef %1, i16 noundef zeroext %2) local_unnamed_addr #0 {
  %4 = icmp ne ptr %0, null
  %5 = icmp ne ptr %1, null
  %or.cond = and i1 %4, %5
  br i1 %or.cond, label %8, label %6

6:                                                ; preds = %3
  %7 = tail call ptr @__errno_location() #14
  store i32 6004, ptr %7, align 4
  br label %21

8:                                                ; preds = %3
  %9 = icmp ugt i16 %2, 10239
  br i1 %9, label %10, label %18

10:                                               ; preds = %8
  %11 = getelementptr inbounds nuw i8, ptr %0, i64 8
  %12 = load ptr, ptr %11, align 8
  %.not = icmp eq ptr %12, null
  br i1 %.not, label %17, label %13

13:                                               ; preds = %10
  %14 = tail call i64 @strlen(ptr noundef nonnull dereferenceable(1) %12) #15
  %15 = trunc i64 %14 to i32
  %16 = add i32 %15, 1
  br label %17

17:                                               ; preds = %13, %10
  %.0 = phi i32 [ %16, %13 ], [ 0, %10 ]
  tail call void @slurm_packmem(ptr noundef %12, i32 noundef %.0, ptr noundef nonnull %1) #13
  br label %21

18:                                               ; preds = %8
  %19 = zext nneg i16 %2 to i32
  %20 = tail call i32 (ptr, ...) @slurm_error(ptr noundef nonnull @.str.13, ptr noundef nonnull @__func__.auth_p_pack, i32 noundef %19) #13
  br label %21

21:                                               ; preds = %17, %18, %6
  %.010 = phi i32 [ 0, %17 ], [ -1, %18 ], [ -1, %6 ]
  ret i32 %.010
}